Certificate:
    Data:
        Version: 3 (0x2)
        Serial Number:
            64:79:47:f7:bc:d8:38:53:c6:c6:25:f8:ee:87:c6:df
        Signature Algorithm: sha256WithRSAEncryption
        Issuer: CN=Easy-RSA CA
        Validity
            Not Before: Feb 18 05:47:54 2026 GMT
            Not After : May 23 05:47:54 2028 GMT
        Subject: CN=simon
        Subject Public Key Info:
            Public Key Algorithm: rsaEncryption
                Public-Key: (2048 bit)
                Modulus:
                    00:be:c5:a4:62:7e:3c:5c:18:45:89:fd:e4:32:21:
                    60:56:0e:a4:8e:ab:f4:7a:05:95:89:85:da:f9:8c:
                    6f:56:49:44:f0:27:be:11:da:17:2b:08:bc:6b:b8:
                    2d:c6:78:d2:04:d8:45:bb:00:29:b8:ad:ef:72:01:
                    8d:56:94:0b:24:ad:72:d8:95:a0:d7:b0:ff:c5:1b:
                    c9:7b:28:15:7e:c1:d0:3a:48:12:9f:7a:76:a8:be:
                    2c:ec:d9:ee:b3:ae:fb:e0:0b:21:af:f5:51:9f:1d:
                    90:9c:bf:3c:ca:24:e6:5e:1e:8a:b2:57:b1:4f:67:
                    2b:f8:61:4e:a7:f4:db:82:a8:6b:17:0c:2f:79:1b:
                    78:c1:7b:52:88:a8:c4:1d:5b:09:ad:e2:07:33:aa:
                    d6:2f:6d:40:ad:64:56:5f:2f:9c:53:7c:92:f2:e6:
                    6b:0a:10:62:3d:85:82:3f:a1:ed:3d:f5:bc:37:ed:
                    af:01:55:08:a9:59:14:36:d9:11:33:7c:18:b1:0c:
                    51:07:12:e4:b1:ab:fb:b7:61:6c:72:4b:76:3f:99:
                    53:1e:4f:42:71:4c:b9:ef:70:49:82:26:51:40:ef:
                    0d:4b:1c:e6:60:db:20:4c:04:aa:52:e2:51:56:da:
                    0c:83:3d:3b:ed:0e:e6:a3:0d:d5:f5:d2:ab:bc:ec:
                    fd:93
                Exponent: 65537 (0x10001)
        X509v3 extensions:
            X509v3 Basic Constraints: 
                CA:FALSE
            X509v3 Subject Key Identifier: 
                D6:78:90:9F:22:4F:48:93:62:01:0D:CB:5D:1D:0C:DB:5D:5B:CF:BA
            X509v3 Authority Key Identifier: 
                keyid:E9:75:26:CB:8A:86:D6:E2:87:29:F4:D5:5F:27:8C:D4:BB:D3:6C:FC
                DirName:/CN=Easy-RSA CA
                serial:07:ED:59:29:4F:E1:73:7F:69:FF:A8:2A:33:1A:D5:47:5D:FC:64:5F
            X509v3 Extended Key Usage: 
                TLS Web Client Authentication
            X509v3 Key Usage: 
                Digital Signature
    Signature Algorithm: sha256WithRSAEncryption
    Signature Value:
        a8:10:08:10:d0:b3:c0:56:b3:03:59:16:32:8f:54:91:0c:7b:
        d6:86:be:1b:3d:c8:70:04:9d:74:cf:54:93:da:ce:ca:6a:2a:
        86:d2:35:d9:12:7f:3b:20:7b:01:c5:71:fa:1d:c1:59:51:2a:
        99:be:6b:eb:8c:56:0e:93:c0:e4:93:82:b6:77:c8:0a:b8:60:
        44:5f:a8:8e:47:b4:75:ba:76:4f:ec:e4:6a:21:b3:97:38:91:
        5e:a4:14:ab:a2:36:82:4f:ff:96:45:d8:24:54:e4:73:6d:41:
        7a:28:f2:b8:ff:cd:65:c1:2c:c5:a5:2c:3c:51:8c:bb:de:1f:
        94:3c:aa:a1:3f:03:b8:f4:48:9c:69:f9:11:b9:7c:0c:47:2b:
        c5:05:41:53:d9:ab:26:ee:78:e8:86:85:19:83:45:a0:2f:88:
        2b:8d:56:11:ad:d2:e7:ba:59:5b:34:d5:b6:9f:81:97:6c:76:
        7e:0c:5a:75:8c:10:b6:14:35:86:6b:2a:2c:27:dd:15:fc:41:
        e1:3f:6c:43:4e:59:c7:b2:9f:24:f1:01:69:48:45:a5:55:ea:
        96:f4:58:bf:ab:3f:7c:f3:08:fd:aa:a3:a2:64:53:01:9a:0d:
        56:88:d2:8b:c7:03:7d:70:f7:2a:2f:59:f3:d4:3f:91:7c:1f:
        3d:63:7c:17
-----BEGIN CERTIFICATE-----
MIIDUzCCAjugAwIBAgIQZHlH97zYOFPGxiX47ofG3zANBgkqhkiG9w0BAQsFADAW
MRQwEgYDVQQDDAtFYXN5LVJTQSBDQTAeFw0yNjAyMTgwNTQ3NTRaFw0yODA1MjMw
NTQ3NTRaMBAxDjAMBgNVBAMMBXNpbW9uMIIBIjANBgkqhkiG9w0BAQEFAAOCAQ8A
MIIBCgKCAQEAvsWkYn48XBhFif3kMiFgVg6kjqv0egWViYXa+YxvVklE8Ce+EdoX
Kwi8a7gtxnjSBNhFuwApuK3vcgGNVpQLJK1y2JWg17D/xRvJeygVfsHQOkgSn3p2
qL4s7Nnus6774Ashr/VRnx2QnL88yiTmXh6KslexT2cr+GFOp/TbgqhrFwwveRt4
wXtSiKjEHVsJreIHM6rWL21ArWRWXy+cU3yS8uZrChBiPYWCP6HtPfW8N+2vAVUI
qVkUNtkRM3wYsQxRBxLksav7t2Fsckt2P5lTHk9CcUy573BJgiZRQO8NSxzmYNsg
TASqUuJRVtoMgz077Q7mow3V9dKrvOz9kwIDAQABo4GiMIGfMAkGA1UdEwQCMAAw
HQYDVR0OBBYEFNZ4kJ8iT0iTYgENy10dDNtdW8+6MFEGA1UdIwRKMEiAFOl1JsuK
htbihyn01V8njNS702z8oRqkGDAWMRQwEgYDVQQDDAtFYXN5LVJTQSBDQYIUB+1Z
KU/hc39p/6gqMxrVR138ZF8wEwYDVR0lBAwwCgYIKwYBBQUHAwIwCwYDVR0PBAQD
AgeAMA0GCSqGSIb3DQEBCwUAA4IBAQCoEAgQ0LPAVrMDWRYyj1SRDHvWhr4bPchw
BJ10z1ST2s7KaiqG0jXZEn87IHsBxXH6HcFZUSqZvmvrjFYOk8Dkk4K2d8gKuGBE
X6iOR7R1unZP7ORqIbOXOJFepBSrojaCT/+WRdgkVORzbUF6KPK4/81lwSzFpSw8
UYy73h+UPKqhPwO49EicafkRuXwMRyvFBUFT2asm7njohoUZg0WgL4grjVYRrdLn
ullbNNW2n4GXbHZ+DFp1jBC2FDWGayosJ90V/EHhP2xDTlnHsp8k8QFpSEWlVeqW
9Fi/qz988wj9qqOiZFMBmg1WiNKLxwN9cPcqL1nz1D+RfB89Y3wX
-----END CERTIFICATE-----
