Certificate:
    Data:
        Version: 3 (0x2)
        Serial Number:
            bc:3b:1a:f0:fd:a9:66:51:42:b4:91:8d:33:27:df:17
        Signature Algorithm: sha256WithRSAEncryption
        Issuer: CN=Easy-RSA CA
        Validity
            Not Before: Feb 18 05:48:07 2026 GMT
            Not After : May 23 05:48:07 2028 GMT
        Subject: CN=toby
        Subject Public Key Info:
            Public Key Algorithm: rsaEncryption
                Public-Key: (2048 bit)
                Modulus:
                    00:9f:8b:ff:83:4e:b9:4b:50:fc:ea:35:75:52:9a:
                    d2:e9:3b:50:4f:9a:10:65:14:d7:38:48:5f:7a:12:
                    1a:36:61:1b:7d:7c:24:4e:31:12:c6:b0:5e:d4:1e:
                    59:0c:ca:6d:8c:cb:3d:52:4b:a7:c8:7d:87:fc:a7:
                    ad:35:9f:9a:f8:99:b9:60:7e:8b:47:f0:5b:24:19:
                    88:17:18:be:e3:25:56:22:79:7b:fc:21:69:a6:4d:
                    fc:89:05:79:90:52:8a:01:17:98:5a:80:f9:51:e3:
                    82:57:c3:1d:cf:e9:c0:4a:69:b4:2d:cb:49:c5:8a:
                    39:72:f2:5e:71:b1:7e:ae:05:4d:d5:a1:9f:c6:b2:
                    19:48:a3:94:5e:93:4a:ce:02:f7:a3:db:d1:9e:96:
                    db:c3:2b:f8:a0:5f:67:67:6b:fb:8f:81:57:e2:d2:
                    ee:26:bb:bb:85:a9:37:63:40:8d:4c:4e:35:52:94:
                    bb:f7:a5:3f:dd:60:58:71:e5:7b:f6:bb:dd:94:e8:
                    d2:49:d6:b5:92:d0:68:9d:61:38:b7:a4:6b:f1:2a:
                    4c:f9:42:ec:61:46:bb:37:46:af:42:95:12:09:65:
                    e5:6b:41:ce:81:69:16:50:c3:63:5d:43:4f:48:d3:
                    a8:e4:d1:5f:eb:07:a6:2e:d2:16:62:3f:42:e0:15:
                    a6:79
                Exponent: 65537 (0x10001)
        X509v3 extensions:
            X509v3 Basic Constraints: 
                CA:FALSE
            X509v3 Subject Key Identifier: 
                86:83:6A:79:9E:88:82:42:36:36:E7:3D:DA:60:12:0F:82:F1:9D:5D
            X509v3 Authority Key Identifier: 
                keyid:E9:75:26:CB:8A:86:D6:E2:87:29:F4:D5:5F:27:8C:D4:BB:D3:6C:FC
                DirName:/CN=Easy-RSA CA
                serial:07:ED:59:29:4F:E1:73:7F:69:FF:A8:2A:33:1A:D5:47:5D:FC:64:5F
            X509v3 Extended Key Usage: 
                TLS Web Client Authentication
            X509v3 Key Usage: 
                Digital Signature
    Signature Algorithm: sha256WithRSAEncryption
    Signature Value:
        73:02:02:09:f7:c2:87:ac:66:93:d4:51:94:ed:ae:bc:58:4c:
        f4:58:8e:f6:a9:91:8e:9e:9e:ab:e5:61:98:d5:b2:bb:29:f8:
        b6:9b:3c:b8:73:1f:32:d6:a2:7f:44:4e:46:15:df:10:d4:0f:
        7a:82:06:37:09:0c:34:5c:f0:e2:61:e4:2d:f2:fc:d1:a0:b9:
        53:3d:3e:79:42:aa:34:43:24:23:ee:0e:24:24:1e:95:96:4c:
        f4:e1:a0:7a:ef:81:80:c0:1d:c9:f8:3d:33:8d:f1:db:61:81:
        81:a0:4b:8b:f7:92:a8:78:fe:40:af:6e:c3:f0:ef:34:0a:af:
        b1:10:0f:e4:c7:0b:6a:fd:fe:a3:2e:f3:98:d6:2d:f4:ca:4e:
        f0:34:b1:c8:90:04:95:2e:57:58:b5:97:52:17:bd:f6:8b:85:
        14:2d:83:44:62:cf:84:a9:bd:e9:56:c4:d9:ba:e0:4a:fa:7d:
        34:4f:7b:fd:68:fd:4e:0f:f9:47:f3:ce:81:e9:99:1d:36:0b:
        fe:e1:f9:77:ee:2c:8a:54:e7:6e:98:ef:cc:61:ed:fe:24:82:
        4c:f3:89:34:3c:ba:39:ca:1c:80:8e:2a:c6:b7:f0:fc:e7:7c:
        cc:a4:af:06:4f:0d:27:e8:90:14:4d:c1:79:ec:cd:8c:78:9e:
        4a:df:da:7e
-----BEGIN CERTIFICATE-----
MIIDUzCCAjugAwIBAgIRALw7GvD9qWZRQrSRjTMn3xcwDQYJKoZIhvcNAQELBQAw
FjEUMBIGA1UEAwwLRWFzeS1SU0EgQ0EwHhcNMjYwMjE4MDU0ODA3WhcNMjgwNTIz
MDU0ODA3WjAPMQ0wCwYDVQQDDAR0b2J5MIIBIjANBgkqhkiG9w0BAQEFAAOCAQ8A
MIIBCgKCAQEAn4v/g065S1D86jV1UprS6TtQT5oQZRTXOEhfehIaNmEbfXwkTjES
xrBe1B5ZDMptjMs9UkunyH2H/KetNZ+a+Jm5YH6LR/BbJBmIFxi+4yVWInl7/CFp
pk38iQV5kFKKAReYWoD5UeOCV8Mdz+nASmm0LctJxYo5cvJecbF+rgVN1aGfxrIZ
SKOUXpNKzgL3o9vRnpbbwyv4oF9nZ2v7j4FX4tLuJru7hak3Y0CNTE41UpS796U/
3WBYceV79rvdlOjSSda1ktBonWE4t6Rr8SpM+ULsYUa7N0avQpUSCWXla0HOgWkW
UMNjXUNPSNOo5NFf6wemLtIWYj9C4BWmeQIDAQABo4GiMIGfMAkGA1UdEwQCMAAw
HQYDVR0OBBYEFIaDanmeiIJCNjbnPdpgEg+C8Z1dMFEGA1UdIwRKMEiAFOl1JsuK
htbihyn01V8njNS702z8oRqkGDAWMRQwEgYDVQQDDAtFYXN5LVJTQSBDQYIUB+1Z
KU/hc39p/6gqMxrVR138ZF8wEwYDVR0lBAwwCgYIKwYBBQUHAwIwCwYDVR0PBAQD
AgeAMA0GCSqGSIb3DQEBCwUAA4IBAQBzAgIJ98KHrGaT1FGU7a68WEz0WI72qZGO
np6r5WGY1bK7Kfi2mzy4cx8y1qJ/RE5GFd8Q1A96ggY3CQw0XPDiYeQt8vzRoLlT
PT55Qqo0QyQj7g4kJB6Vlkz04aB674GAwB3J+D0zjfHbYYGBoEuL95KoeP5Ar27D
8O80Cq+xEA/kxwtq/f6jLvOY1i30yk7wNLHIkASVLldYtZdSF732i4UULYNEYs+E
qb3pVsTZuuBK+n00T3v9aP1OD/lH886B6ZkdNgv+4fl37iyKVOdumO/MYe3+JIJM
84k0PLo5yhyAjirGt/D853zMpK8GTw0n6JAUTcF57M2MeJ5K39p+
-----END CERTIFICATE-----
